target datalayout = "e-m:e-p270:32:32-p271:32:32-p272:64:64-i64:64-i128:128-f80:128-n8:16:32:64-S128"
target triple = "x86_64-pc-linux-gnu"

%"class.duckdb_re2::Prog::Inst" = type { i32, %union.anon }
%union.anon = type { i32 }

; Function Attrs: mustprogress nounwind uwtable
define linkonce_odr hidden noundef i32 @_ZN10duckdb_re24Prog4Inst4lastEv(ptr noundef nonnull align 4 dereferenceable(8) %0) #1 comdat align 2 {
  %2 = alloca ptr, align 8
  store ptr %0, ptr %2, align 8, !tbaa !3
  %3 = load ptr, ptr %2, align 8
  %4 = getelementptr inbounds nuw %"class.duckdb_re2::Prog::Inst", ptr %3, i32 0, i32 0
  %5 = load i32, ptr %4, align 4, !tbaa !13
  %6 = lshr i32 %5, 3
  %7 = and i32 %6, 1
  ret i32 %7
}

; Function Attrs: mustprogress nounwind uwtable
define linkonce_odr hidden noundef i32 @_ZN10duckdb_re24Prog4Inst3outEv(ptr noundef nonnull align 4 dereferenceable(8) %0) #1 comdat align 2 {
  %2 = alloca ptr, align 8
  store ptr %0, ptr %2, align 8, !tbaa !3
  %3 = load ptr, ptr %2, align 8
  %4 = getelementptr inbounds nuw %"class.duckdb_re2::Prog::Inst", ptr %3, i32 0, i32 0
  %5 = load i32, ptr %4, align 4, !tbaa !13
  %6 = lshr i32 %5, 4
  ret i32 %6
}

; Function Attrs: mustprogress uwtable
define linkonce_odr hidden void @_ZN10duckdb_re24Prog4Inst10set_opcodeENS_6InstOpE(ptr noundef nonnull align 4 dereferenceable(8) %0, i32 noundef %1) #0 comdat align 2 {
  %3 = alloca ptr, align 8
  %4 = alloca i32, align 4
  store ptr %0, ptr %3, align 8, !tbaa !3
  store i32 %1, ptr %4, align 4, !tbaa !11
  %5 = load ptr, ptr %3, align 8
  %6 = call noundef i32 @_ZN10duckdb_re24Prog4Inst3outEv(ptr noundef nonnull align 4 dereferenceable(8) %5)
  %7 = shl i32 %6, 4
  %8 = call noundef i32 @_ZN10duckdb_re24Prog4Inst4lastEv(ptr noundef nonnull align 4 dereferenceable(8) %5)
  %9 = shl i32 %8, 3
  %10 = or i32 %7, %9
  %11 = load i32, ptr %4, align 4, !tbaa !11
  %12 = or i32 %10, %11
  %13 = getelementptr inbounds nuw %"class.duckdb_re2::Prog::Inst", ptr %5, i32 0, i32 0
  store i32 %12, ptr %13, align 4, !tbaa !13
  ret void
}

; Function Attrs: mustprogress uwtable
define hidden void @_ZN10duckdb_re24Prog4Inst9InitMatchEi(ptr noundef nonnull align 4 dereferenceable(8) %0, i32 noundef %1) #0 align 2 {
  %3 = alloca ptr, align 8
  %4 = alloca i32, align 4
  store ptr %0, ptr %3, align 8, !tbaa !3
  store i32 %1, ptr %4, align 4, !tbaa !8
  %5 = load ptr, ptr %3, align 8
  call void @_ZN10duckdb_re24Prog4Inst10set_opcodeENS_6InstOpE(ptr noundef nonnull align 4 dereferenceable(8) %5, i32 noundef 5)
  %6 = load i32, ptr %4, align 4, !tbaa !8
  %7 = getelementptr inbounds nuw %"class.duckdb_re2::Prog::Inst", ptr %5, i32 0, i32 1
  store i32 %6, ptr %7, align 4, !tbaa !10
  ret void
}