; Function Attrs: mustprogress nofree norecurse nosync nounwind willreturn memory(argmem: readwrite) uwtable
define hidden void @_ZN10duckdb_re24Prog4Inst9InitMatchEi(ptr noundef nonnull align 4 captures(none) dereferenceable(8) initializes((4, 8)) %0, i32 noundef %1) local_unnamed_addr #0 align 2 {
  %3 = load i32, ptr %0, align 4, !tbaa !3
  %4 = and i32 %3, -8
  %5 = or disjoint i32 %4, 5
  store i32 %5, ptr %0, align 4, !tbaa !3
  %6 = getelementptr inbounds nuw i8, ptr %0, i64 4
  store i32 %1, ptr %6, align 4, !tbaa !8
  ret void
}